; Function Attrs: mustprogress uwtable
define void @_ZN5boost3log11v2_mt_posix4core3getEv(ptr dead_on_unwind noalias nocapture writable writeonly sret(%"class.boost::shared_ptr.9") align 8 %0) local_unnamed_addr #4 align 2 personality ptr @__gxx_personality_v0 {
  %2 = tail call noundef nonnull align 8 dereferenceable(16) ptr @_ZN5boost3log11v2_mt_posix3aux14lazy_singletonINS1_4core14implementationENS_10shared_ptrIS4_EEE3getEv()
  %3 = load ptr, ptr %2, align 8, !tbaa !60
  store ptr %3, ptr %0, align 8, !tbaa !60
  %4 = getelementptr inbounds nuw i8, ptr %0, i64 8
  %5 = getelementptr inbounds nuw i8, ptr %2, i64 8
  %6 = load ptr, ptr %5, align 8, !tbaa !40
  store ptr %6, ptr %4, align 8, !tbaa !40
  %.not.i.i = icmp eq ptr %6, null
  br i1 %.not.i.i, label %_ZN5boost10shared_ptrINS_3log11v2_mt_posix4coreEEC2ERKS4_.exit, label %7

7:                                                ; preds = %1
  %8 = getelementptr inbounds nuw i8, ptr %6, i64 8
  %9 = atomicrmw add ptr %8, i32 1 monotonic, align 4
  br label %_ZN5boost10shared_ptrINS_3log11v2_mt_posix4coreEEC2ERKS4_.exit

_ZN5boost10shared_ptrINS_3log11v2_mt_posix4coreEEC2ERKS4_.exit: ; preds = %1, %7
  ret void
}